(dp1
I0
Vacademics
p2
sI1
Vadmissions
p3
sI2
Vadmissions_PG
p4
sI3
Vadmissions_R
p5
sI4
Vadmissions_UG
p6
sI5
Vaffirm
p7
sI6
Vcampus_life
p8
sI7
Vcoe
p9
sI8
Vdeny
p10
sI9
Vfests
p11
sI10
Vffcs
p12
sI11
Vgoodbye
p13
sI12
Vgravitas
p14
sI13
Vgreet
p15
sI14
Vinternational_relations
p16
sI15
Vinternational_transfer_program
p17
sI16
Vlibrary
p18
sI17
Vriviera
p19
sI18
Vschools
p20
sI19
Vstudent_chapters
p21
sI20
Vstudent_chapters_IEEE
p22
sI21
Vstudent_chapters_american
p23
sI22
Vstudent_chapters_indian
p24
sI23
Vstudent_chapters_international
p25
sI24
Vstudent_chapters_university
p26
sI25
Vstudent_clubs
p27
sI26
Vstudent_clubs_arts
p28
sI27
Vstudent_clubs_fitness
p29
sI28
Vstudent_clubs_literature
p30
sI29
Vstudent_clubs_outreach
p31
sI30
Vstudent_clubs_technology
p32
sI31
Vthanks
p33
s.